target datalayout = "e-m:e-p270:32:32-p271:32:32-p272:64:64-i64:64-i128:128-f80:128-n8:16:32:64-S128"
target triple = "x86_64-pc-linux-gnu"

%"struct.std::__detail::_Hash_node_base" = type { ptr }
%"struct.std::__detail::_Prime_rehash_policy" = type { float, i64 }
%"class.std::__cxx11::basic_string" = type { %"struct.std::__cxx11::basic_string<char>::_Alloc_hider", i64, %union.anon }
%"struct.std::__cxx11::basic_string<char>::_Alloc_hider" = type { ptr }
%union.anon = type { i64, [8 x i8] }
%"class.open3d::core::Dtype" = type { i32, i64, [16 x i8] }
%"class.std::__shared_count" = type { ptr }
%"class.open3d::core::SizeVector" = type { %"class.open3d::core::SmallVector" }
%"class.open3d::core::SmallVector" = type { %"class.open3d::core::SmallVectorImpl", %"struct.open3d::core::SmallVectorStorage" }
%"class.open3d::core::SmallVectorImpl" = type { %"class.open3d::core::SmallVectorTemplateBase" }
%"class.open3d::core::SmallVectorTemplateBase" = type { %"class.open3d::core::SmallVectorTemplateCommon" }
%"class.open3d::core::SmallVectorTemplateCommon" = type { %"class.open3d::core::SmallVectorBase" }
%"class.open3d::core::SmallVectorBase" = type { ptr, i32, i32 }
%"struct.open3d::core::SmallVectorStorage" = type { [32 x i8] }
%"class.open3d::core::Device" = type { i32, i32 }
%"class.open3d::core::Tensor" = type { %"class.open3d::core::IsDevice", %"class.open3d::core::SizeVector", %"class.open3d::core::SizeVector", ptr, %"class.open3d::core::Dtype", %"class.std::shared_ptr.35" }
%"class.open3d::core::IsDevice" = type { ptr }
%"class.std::shared_ptr.35" = type { %"class.std::__shared_ptr.36" }
%"class.std::__shared_ptr.36" = type { ptr, %"class.std::__shared_count" }
%"class.open3d::t::geometry::PointCloud" = type { %"class.open3d::t::geometry::Geometry", %"class.open3d::t::geometry::DrawableGeometry", %"class.open3d::core::Device", %"class.open3d::t::geometry::TensorMap" }
%"class.open3d::t::geometry::Geometry" = type { %"class.open3d::core::IsDevice", i32, i32, %"class.std::__cxx11::basic_string" }
%"class.open3d::t::geometry::DrawableGeometry" = type { %"class.open3d::visualization::rendering::Material" }
%"class.open3d::visualization::rendering::Material" = type { %"class.std::__cxx11::basic_string", %"class.std::unordered_map.38", %"class.std::unordered_map.58", %"class.std::unordered_map.72" }
%"class.std::unordered_map.38" = type { %"class.std::_Hashtable.39" }
%"class.std::_Hashtable.39" = type { ptr, i64, %"struct.std::__detail::_Hash_node_base", i64, %"struct.std::__detail::_Prime_rehash_policy", ptr }
%"class.std::unordered_map.58" = type { %"class.std::_Hashtable.59" }
%"class.std::_Hashtable.59" = type { ptr, i64, %"struct.std::__detail::_Hash_node_base", i64, %"struct.std::__detail::_Prime_rehash_policy", ptr }
%"class.std::unordered_map.72" = type { %"class.std::_Hashtable.73" }
%"class.std::_Hashtable.73" = type { ptr, i64, %"struct.std::__detail::_Hash_node_base", i64, %"struct.std::__detail::_Prime_rehash_policy", ptr }
%"class.open3d::t::geometry::TensorMap" = type { %"class.std::unordered_map.86", %"class.std::__cxx11::basic_string" }
%"class.std::unordered_map.86" = type { %"class.std::_Hashtable.87" }
%"class.std::_Hashtable.87" = type { ptr, i64, %"struct.std::__detail::_Hash_node_base", i64, %"struct.std::__detail::_Prime_rehash_policy", ptr }
%"class.open3d::t::geometry::Image" = type { %"class.open3d::t::geometry::Geometry", %"class.open3d::core::Tensor" }
%"class.open3d::t::geometry::RGBDImage" = type <{ %"class.open3d::t::geometry::Geometry", %"class.open3d::t::geometry::Image", %"class.open3d::t::geometry::Image", i8, [7 x i8] }>

; Function Attrs: mustprogress nounwind ssp uwtable
define linkonce_odr noundef ptr @_ZNK6open3d4core25SmallVectorTemplateCommonIlvE10getFirstElEv(ptr noundef nonnull align 8 dereferenceable(16) %0) #1 comdat align 2 {
  %2 = alloca ptr, align 8
  store ptr %0, ptr %2, align 8, !tbaa !245
  %3 = load ptr, ptr %2, align 8
  %4 = getelementptr inbounds nuw i8, ptr %3, i64 16
  ret ptr %4
}

; Function Attrs: mustprogress ssp uwtable
define linkonce_odr noundef zeroext i1 @_ZNK6open3d4core25SmallVectorTemplateCommonIlvE7isSmallEv(ptr noundef nonnull align 8 dereferenceable(16) %0) #3 comdat align 2 {
  %2 = alloca ptr, align 8
  store ptr %0, ptr %2, align 8, !tbaa !245
  %3 = load ptr, ptr %2, align 8
  %4 = getelementptr inbounds nuw %"class.open3d::core::SmallVectorBase", ptr %3, i32 0, i32 0
  %5 = load ptr, ptr %4, align 8, !tbaa !247
  %6 = call noundef ptr @_ZNK6open3d4core25SmallVectorTemplateCommonIlvE10getFirstElEv(ptr noundef nonnull align 8 dereferenceable(16) %3)
  %7 = icmp eq ptr %5, %6
  ret i1 %7
}

; Function Attrs: mustprogress nounwind ssp uwtable
define linkonce_odr noundef i64 @_ZNK6open3d4core15SmallVectorBaseIjE4sizeEv(ptr noundef nonnull align 8 dereferenceable(16) %0) #1 comdat align 2 {
  %2 = alloca ptr, align 8
  store ptr %0, ptr %2, align 8, !tbaa !251
  %3 = load ptr, ptr %2, align 8
  %4 = getelementptr inbounds nuw %"class.open3d::core::SmallVectorBase", ptr %3, i32 0, i32 1
  %5 = load i32, ptr %4, align 8, !tbaa !253
  %6 = zext i32 %5 to i64
  ret i64 %6
}

; Function Attrs: noinline noreturn nounwind ssp uwtable
define linkonce_odr hidden void @__clang_call_terminate(ptr noundef %0) #14 comdat {
  %2 = call ptr @__cxa_begin_catch(ptr %0) #7
  call void @_ZSt9terminatev() #31
  unreachable
}

; Function Attrs: mustprogress nounwind ssp uwtable
define linkonce_odr void @_ZN6open3d4core15SmallVectorImplIlED2Ev(ptr noundef nonnull align 8 dereferenceable(16) %0) unnamed_addr #1 comdat align 2 personality ptr @__gxx_personality_v0 {
  %2 = alloca ptr, align 8
  store ptr %0, ptr %2, align 8, !tbaa !249
  %3 = load ptr, ptr %2, align 8
  %4 = invoke noundef zeroext i1 @_ZNK6open3d4core25SmallVectorTemplateCommonIlvE7isSmallEv(ptr noundef nonnull align 8 dereferenceable(16) %3)
          to label %5 unwind label %9

5:                                                ; preds = %1
  br i1 %4, label %8, label %6

6:                                                ; preds = %5
  %7 = call noundef ptr @_ZN6open3d4core25SmallVectorTemplateCommonIlvE5beginEv(ptr noundef nonnull align 8 dereferenceable(16) %3)
  call void @free(ptr noundef %7) #7
  br label %8

8:                                                ; preds = %6, %5
  ret void

9:                                                ; preds = %1
  %10 = landingpad { ptr, i32 }
          catch ptr null
  %11 = extractvalue { ptr, i32 } %10, 0
  call void @__clang_call_terminate(ptr %11) #31
  unreachable
}

; Function Attrs: mustprogress nounwind ssp uwtable
define linkonce_odr void @_ZN6open3d4core23SmallVectorTemplateBaseIlLb1EE13destroy_rangeEPlS3_(ptr noundef %0, ptr noundef %1) #1 comdat align 2 {
  %3 = alloca ptr, align 8
  %4 = alloca ptr, align 8
  store ptr %0, ptr %3, align 8, !tbaa !126
  store ptr %1, ptr %4, align 8, !tbaa !126
  ret void
}

; Function Attrs: mustprogress ssp uwtable
define linkonce_odr noundef ptr @_ZN6open3d4core25SmallVectorTemplateCommonIlvE3endEv(ptr noundef nonnull align 8 dereferenceable(16) %0) #3 comdat align 2 {
  %2 = alloca ptr, align 8
  store ptr %0, ptr %2, align 8, !tbaa !245
  %3 = load ptr, ptr %2, align 8
  %4 = call noundef ptr @_ZN6open3d4core25SmallVectorTemplateCommonIlvE5beginEv(ptr noundef nonnull align 8 dereferenceable(16) %3)
  %5 = call noundef i64 @_ZNK6open3d4core15SmallVectorBaseIjE4sizeEv(ptr noundef nonnull align 8 dereferenceable(16) %3)
  %6 = getelementptr inbounds nuw i64, ptr %4, i64 %5
  ret ptr %6
}

; Function Attrs: mustprogress nounwind ssp uwtable
define linkonce_odr noundef ptr @_ZN6open3d4core25SmallVectorTemplateCommonIlvE5beginEv(ptr noundef nonnull align 8 dereferenceable(16) %0) #1 comdat align 2 {
  %2 = alloca ptr, align 8
  store ptr %0, ptr %2, align 8, !tbaa !245
  %3 = load ptr, ptr %2, align 8
  %4 = getelementptr inbounds nuw %"class.open3d::core::SmallVectorBase", ptr %3, i32 0, i32 0
  %5 = load ptr, ptr %4, align 8, !tbaa !247
  ret ptr %5
}

; Function Attrs: mustprogress nounwind ssp uwtable
define linkonce_odr void @_ZN6open3d4core11SmallVectorIlLj4EED2Ev(ptr noundef nonnull align 8 dereferenceable(48) %0) unnamed_addr #1 comdat align 2 personality ptr @__gxx_personality_v0 {
  %2 = alloca ptr, align 8
  store ptr %0, ptr %2, align 8, !tbaa !198
  %3 = load ptr, ptr %2, align 8
  %4 = invoke noundef ptr @_ZN6open3d4core25SmallVectorTemplateCommonIlvE5beginEv(ptr noundef nonnull align 8 dereferenceable(16) %3)
          to label %5 unwind label %9

5:                                                ; preds = %1
  %6 = invoke noundef ptr @_ZN6open3d4core25SmallVectorTemplateCommonIlvE3endEv(ptr noundef nonnull align 8 dereferenceable(16) %3)
          to label %7 unwind label %9

7:                                                ; preds = %5
  invoke void @_ZN6open3d4core23SmallVectorTemplateBaseIlLb1EE13destroy_rangeEPlS3_(ptr noundef %4, ptr noundef %6)
          to label %8 unwind label %9

8:                                                ; preds = %7
  call void @_ZN6open3d4core15SmallVectorImplIlED2Ev(ptr noundef nonnull align 8 dereferenceable(16) %3) #7
  ret void

9:                                                ; preds = %7, %5, %1
  %10 = landingpad { ptr, i32 }
          catch ptr null
  %11 = extractvalue { ptr, i32 } %10, 0
  call void @__clang_call_terminate(ptr %11) #31
  unreachable
}

; Function Attrs: mustprogress nounwind ssp uwtable
define linkonce_odr noundef nonnull align 8 dereferenceable(8) ptr @_ZN6open3d4core25SmallVectorTemplateCommonIlvEixEm(ptr noundef nonnull align 8 dereferenceable(16) %0, i64 noundef %1) #1 comdat align 2 {
  %3 = alloca ptr, align 8
  %4 = alloca i64, align 8
  store ptr %0, ptr %3, align 8, !tbaa !245
  store i64 %1, ptr %4, align 8, !tbaa !30
  %5 = load ptr, ptr %3, align 8
  %6 = call noundef ptr @_ZN6open3d4core25SmallVectorTemplateCommonIlvE5beginEv(ptr noundef nonnull align 8 dereferenceable(16) %5)
  %7 = load i64, ptr %4, align 8, !tbaa !30
  %8 = getelementptr inbounds nuw i64, ptr %6, i64 %7
  ret ptr %8
}

; Function Attrs: inlinehint mustprogress ssp uwtable
define linkonce_odr void @_ZNK6open3d4core6Tensor8GetShapeEv(ptr dead_on_unwind noalias writable sret(%"class.open3d::core::SizeVector") align 8 %0, ptr noundef nonnull align 8 dereferenceable(160) %1) #17 comdat align 2 {
  %3 = alloca ptr, align 8
  %4 = alloca ptr, align 8
  store ptr %0, ptr %3, align 8
  store ptr %1, ptr %4, align 8, !tbaa !254
  %5 = load ptr, ptr %4, align 8
  %6 = getelementptr inbounds nuw %"class.open3d::core::Tensor", ptr %5, i32 0, i32 1
  call void @_ZN6open3d4core10SizeVectorC1ERKS1_(ptr noundef nonnull align 8 dereferenceable(48) %0, ptr noundef nonnull align 8 dereferenceable(48) %6)
  ret void
}

; Function Attrs: mustprogress ssp uwtable
define linkonce_odr noundef i64 @_ZNK6open3d1t8geometry5Image7GetRowsEv(ptr noundef nonnull align 8 dereferenceable(208) %0) #3 comdat align 2 {
  %2 = alloca ptr, align 8
  %3 = alloca %"class.open3d::core::SizeVector", align 8
  store ptr %0, ptr %2, align 8, !tbaa !1593
  %4 = load ptr, ptr %2, align 8
  call void @llvm.lifetime.start.p0(i64 48, ptr %3) #7
  %5 = getelementptr inbounds nuw %"class.open3d::t::geometry::Image", ptr %4, i32 0, i32 1
  call void @_ZNK6open3d4core6Tensor8GetShapeEv(ptr dead_on_unwind writable sret(%"class.open3d::core::SizeVector") align 8 %3, ptr noundef nonnull align 8 dereferenceable(160) %5)
  %6 = call noundef nonnull align 8 dereferenceable(8) ptr @_ZN6open3d4core25SmallVectorTemplateCommonIlvEixEm(ptr noundef nonnull align 8 dereferenceable(16) %3, i64 noundef 0)
  %7 = load i64, ptr %6, align 8, !tbaa !30
  call void @_ZN6open3d4core11SmallVectorIlLj4EED2Ev(ptr noundef nonnull align 8 dereferenceable(48) %3) #7
  call void @llvm.lifetime.end.p0(i64 48, ptr %3) #7
  ret i64 %7
}

; Function Attrs: mustprogress ssp uwtable
define linkonce_odr noundef i64 @_ZNK6open3d1t8geometry5Image7GetColsEv(ptr noundef nonnull align 8 dereferenceable(208) %0) #3 comdat align 2 {
  %2 = alloca ptr, align 8
  %3 = alloca %"class.open3d::core::SizeVector", align 8
  store ptr %0, ptr %2, align 8, !tbaa !1593
  %4 = load ptr, ptr %2, align 8
  call void @llvm.lifetime.start.p0(i64 48, ptr %3) #7
  %5 = getelementptr inbounds nuw %"class.open3d::t::geometry::Image", ptr %4, i32 0, i32 1
  call void @_ZNK6open3d4core6Tensor8GetShapeEv(ptr dead_on_unwind writable sret(%"class.open3d::core::SizeVector") align 8 %3, ptr noundef nonnull align 8 dereferenceable(160) %5)
  %6 = call noundef nonnull align 8 dereferenceable(8) ptr @_ZN6open3d4core25SmallVectorTemplateCommonIlvEixEm(ptr noundef nonnull align 8 dereferenceable(16) %3, i64 noundef 1)
  %7 = load i64, ptr %6, align 8, !tbaa !30
  call void @_ZN6open3d4core11SmallVectorIlLj4EED2Ev(ptr noundef nonnull align 8 dereferenceable(48) %3) #7
  call void @llvm.lifetime.end.p0(i64 48, ptr %3) #7
  ret i64 %7
}

; Function Attrs: mustprogress ssp uwtable
define void @_ZN6open3d1t9pipelines4slac11ControlGrid6DeformERKNS0_8geometry9RGBDImageERKNS_4core6TensorESB_ff(ptr dead_on_unwind noalias writable sret(%"class.open3d::t::geometry::RGBDImage") align 8 %0, ptr noundef nonnull align 8 dereferenceable(40) %1, ptr noundef nonnull align 8 dereferenceable(465) %2, ptr noundef nonnull align 8 dereferenceable(160) %3, ptr noundef nonnull align 8 dereferenceable(160) %4, float noundef %5, float noundef %6) #3 align 2 personality ptr @__gxx_personality_v0 {
  %8 = alloca ptr, align 8
  %9 = alloca ptr, align 8
  %10 = alloca ptr, align 8
  %11 = alloca ptr, align 8
  %12 = alloca ptr, align 8
  %13 = alloca float, align 4
  %14 = alloca float, align 4
  %15 = alloca %"class.open3d::t::geometry::PointCloud", align 8
  %16 = alloca %"class.open3d::t::geometry::PointCloud", align 8
  %17 = alloca ptr, align 8
  %18 = alloca i32, align 4
  %19 = alloca %"class.open3d::t::geometry::PointCloud", align 8
  %20 = alloca i32, align 4
  %21 = alloca i32, align 4
  store ptr %0, ptr %8, align 8
  store ptr %1, ptr %9, align 8, !tbaa !169
  store ptr %2, ptr %10, align 8, !tbaa !1727
  store ptr %3, ptr %11, align 8, !tbaa !254
  store ptr %4, ptr %12, align 8, !tbaa !254
  store float %5, ptr %13, align 4, !tbaa !68
  store float %6, ptr %14, align 4, !tbaa !68
  %22 = load ptr, ptr %9, align 8
  call void @llvm.lifetime.start.p0(i64 344, ptr %15) #7
  %23 = load ptr, ptr %10, align 8, !tbaa !1727
  %24 = load ptr, ptr %11, align 8, !tbaa !254
  %25 = load ptr, ptr %12, align 8, !tbaa !254
  %26 = load float, ptr %13, align 4, !tbaa !68
  %27 = load float, ptr %14, align 4, !tbaa !68
  call void @_ZN6open3d1t8geometry10PointCloud19CreateFromRGBDImageERKNS1_9RGBDImageERKNS_4core6TensorES9_ffib(ptr dead_on_unwind writable sret(%"class.open3d::t::geometry::PointCloud") align 8 %15, ptr noundef nonnull align 8 dereferenceable(465) %23, ptr noundef nonnull align 8 dereferenceable(160) %24, ptr noundef nonnull align 8 dereferenceable(160) %25, float noundef %26, float noundef %27, i32 noundef 1, i1 noundef zeroext false)
  call void @llvm.lifetime.start.p0(i64 344, ptr %16) #7
  invoke void @_ZN6open3d1t9pipelines4slac11ControlGrid12ParameterizeERKNS0_8geometry10PointCloudE(ptr dead_on_unwind writable sret(%"class.open3d::t::geometry::PointCloud") align 8 %16, ptr noundef nonnull align 8 dereferenceable(40) %22, ptr noundef nonnull align 8 dereferenceable(344) %15)
          to label %28 unwind label %47

28:                                               ; preds = %7
  call void @llvm.lifetime.start.p0(i64 344, ptr %19) #7
  invoke void @_ZN6open3d1t9pipelines4slac11ControlGrid6DeformERKNS0_8geometry10PointCloudE(ptr dead_on_unwind writable sret(%"class.open3d::t::geometry::PointCloud") align 8 %19, ptr noundef nonnull align 8 dereferenceable(40) %22, ptr noundef nonnull align 8 dereferenceable(344) %16)
          to label %29 unwind label %51

29:                                               ; preds = %28
  call void @llvm.lifetime.start.p0(i64 4, ptr %20) #7
  %30 = load ptr, ptr %10, align 8, !tbaa !1727
  %31 = getelementptr inbounds nuw %"class.open3d::t::geometry::RGBDImage", ptr %30, i32 0, i32 2
  %32 = invoke noundef i64 @_ZNK6open3d1t8geometry5Image7GetColsEv(ptr noundef nonnull align 8 dereferenceable(208) %31)
          to label %33 unwind label %55

33:                                               ; preds = %29
  %34 = trunc i64 %32 to i32
  store i32 %34, ptr %20, align 4, !tbaa !121
  call void @llvm.lifetime.start.p0(i64 4, ptr %21) #7
  %35 = load ptr, ptr %10, align 8, !tbaa !1727
  %36 = getelementptr inbounds nuw %"class.open3d::t::geometry::RGBDImage", ptr %35, i32 0, i32 1
  %37 = invoke noundef i64 @_ZNK6open3d1t8geometry5Image7GetRowsEv(ptr noundef nonnull align 8 dereferenceable(208) %36)
          to label %38 unwind label %59

38:                                               ; preds = %33
  %39 = trunc i64 %37 to i32
  store i32 %39, ptr %21, align 4, !tbaa !121
  %40 = load i32, ptr %20, align 4, !tbaa !121
  %41 = load i32, ptr %21, align 4, !tbaa !121
  %42 = load ptr, ptr %11, align 8, !tbaa !254
  %43 = load ptr, ptr %12, align 8, !tbaa !254
  %44 = load float, ptr %13, align 4, !tbaa !68
  %45 = load float, ptr %14, align 4, !tbaa !68
  invoke void @_ZN6open3d1t8geometry10PointCloud18ProjectToRGBDImageEiiRKNS_4core6TensorES6_ff(ptr dead_on_unwind writable sret(%"class.open3d::t::geometry::RGBDImage") align 8 %0, ptr noundef nonnull align 8 dereferenceable(344) %19, i32 noundef %40, i32 noundef %41, ptr noundef nonnull align 8 dereferenceable(160) %42, ptr noundef nonnull align 8 dereferenceable(160) %43, float noundef %44, float noundef %45)
          to label %46 unwind label %59

46:                                               ; preds = %38
  call void @llvm.lifetime.end.p0(i64 4, ptr %21) #7
  call void @llvm.lifetime.end.p0(i64 4, ptr %20) #7
  call void @_ZN6open3d1t8geometry10PointCloudD2Ev(ptr noundef nonnull align 8 dereferenceable(344) %19) #7
  call void @llvm.lifetime.end.p0(i64 344, ptr %19) #7
  call void @_ZN6open3d1t8geometry10PointCloudD2Ev(ptr noundef nonnull align 8 dereferenceable(344) %16) #7
  call void @llvm.lifetime.end.p0(i64 344, ptr %16) #7
  call void @_ZN6open3d1t8geometry10PointCloudD2Ev(ptr noundef nonnull align 8 dereferenceable(344) %15) #7
  call void @llvm.lifetime.end.p0(i64 344, ptr %15) #7
  ret void

47:                                               ; preds = %7
  %48 = landingpad { ptr, i32 }
          cleanup
  %49 = extractvalue { ptr, i32 } %48, 0
  store ptr %49, ptr %17, align 8
  %50 = extractvalue { ptr, i32 } %48, 1
  store i32 %50, ptr %18, align 4
  br label %65

51:                                               ; preds = %28
  %52 = landingpad { ptr, i32 }
          cleanup
  %53 = extractvalue { ptr, i32 } %52, 0
  store ptr %53, ptr %17, align 8
  %54 = extractvalue { ptr, i32 } %52, 1
  store i32 %54, ptr %18, align 4
  br label %64

55:                                               ; preds = %29
  %56 = landingpad { ptr, i32 }
          cleanup
  %57 = extractvalue { ptr, i32 } %56, 0
  store ptr %57, ptr %17, align 8
  %58 = extractvalue { ptr, i32 } %56, 1
  store i32 %58, ptr %18, align 4
  br label %63

59:                                               ; preds = %38, %33
  %60 = landingpad { ptr, i32 }
          cleanup
  %61 = extractvalue { ptr, i32 } %60, 0
  store ptr %61, ptr %17, align 8
  %62 = extractvalue { ptr, i32 } %60, 1
  store i32 %62, ptr %18, align 4
  call void @llvm.lifetime.end.p0(i64 4, ptr %21) #7
  br label %63

63:                                               ; preds = %59, %55
  call void @llvm.lifetime.end.p0(i64 4, ptr %20) #7
  call void @_ZN6open3d1t8geometry10PointCloudD2Ev(ptr noundef nonnull align 8 dereferenceable(344) %19) #7
  br label %64

64:                                               ; preds = %63, %51
  call void @llvm.lifetime.end.p0(i64 344, ptr %19) #7
  call void @_ZN6open3d1t8geometry10PointCloudD2Ev(ptr noundef nonnull align 8 dereferenceable(344) %16) #7
  br label %65

65:                                               ; preds = %64, %47
  call void @llvm.lifetime.end.p0(i64 344, ptr %16) #7
  call void @_ZN6open3d1t8geometry10PointCloudD2Ev(ptr noundef nonnull align 8 dereferenceable(344) %15) #7
  call void @llvm.lifetime.end.p0(i64 344, ptr %15) #7
  br label %66

66:                                               ; preds = %65
  %67 = load ptr, ptr %17, align 8
  %68 = load i32, ptr %18, align 4
  %69 = insertvalue { ptr, i32 } poison, ptr %67, 0
  %70 = insertvalue { ptr, i32 } %69, i32 %68, 1
  resume { ptr, i32 } %70
}