; Function Attrs: mustprogress ssp uwtable
define void @_ZN6open3d1t9pipelines4slac11ControlGrid6DeformERKNS0_8geometry9RGBDImageERKNS_4core6TensorESB_ff(ptr dead_on_unwind noalias writable sret(%"class.open3d::t::geometry::RGBDImage") align 8 %0, ptr noundef nonnull align 8 dereferenceable(40) %1, ptr noundef nonnull align 8 dereferenceable(465) %2, ptr noundef nonnull align 8 dereferenceable(160) %3, ptr noundef nonnull align 8 dereferenceable(160) %4, float noundef %5, float noundef %6) local_unnamed_addr #4 align 2 personality ptr @__gxx_personality_v0 {
  %8 = alloca %"class.open3d::core::SizeVector", align 8
  %9 = alloca %"class.open3d::core::SizeVector", align 8
  %10 = alloca %"class.open3d::t::geometry::PointCloud", align 8
  %11 = alloca %"class.open3d::t::geometry::PointCloud", align 8
  %12 = alloca %"class.open3d::t::geometry::PointCloud", align 8
  call void @llvm.lifetime.start.p0(i64 344, ptr nonnull %10) #38
  call void @_ZN6open3d1t8geometry10PointCloud19CreateFromRGBDImageERKNS1_9RGBDImageERKNS_4core6TensorES9_ffib(ptr dead_on_unwind nonnull writable sret(%"class.open3d::t::geometry::PointCloud") align 8 %10, ptr noundef nonnull align 8 dereferenceable(465) %2, ptr noundef nonnull align 8 dereferenceable(160) %3, ptr noundef nonnull align 8 dereferenceable(160) %4, float noundef %5, float noundef %6, i32 noundef 1, i1 noundef zeroext false)
  call void @llvm.lifetime.start.p0(i64 344, ptr nonnull %11) #38
  invoke void @_ZN6open3d1t9pipelines4slac11ControlGrid12ParameterizeERKNS0_8geometry10PointCloudE(ptr dead_on_unwind nonnull writable sret(%"class.open3d::t::geometry::PointCloud") align 8 %11, ptr noundef nonnull align 8 dereferenceable(40) %1, ptr noundef nonnull align 8 dereferenceable(344) %10)
          to label %13 unwind label %33

13:                                               ; preds = %7
  call void @llvm.lifetime.start.p0(i64 344, ptr nonnull %12) #38
  invoke void @_ZN6open3d1t9pipelines4slac11ControlGrid6DeformERKNS0_8geometry10PointCloudE(ptr dead_on_unwind nonnull writable sret(%"class.open3d::t::geometry::PointCloud") align 8 %12, ptr noundef nonnull align 8 dereferenceable(40) %1, ptr noundef nonnull align 8 dereferenceable(344) %11)
          to label %14 unwind label %35

14:                                               ; preds = %13
  call void @llvm.lifetime.start.p0(i64 48, ptr nonnull %9) #38
  %15 = getelementptr inbounds nuw i8, ptr %2, i64 312
  invoke void @_ZN6open3d4core10SizeVectorC1ERKS1_(ptr noundef nonnull align 8 dereferenceable(48) %9, ptr noundef nonnull align 8 dereferenceable(48) %15)
          to label %.noexc unwind label %37

.noexc:                                           ; preds = %14
  %16 = load ptr, ptr %9, align 8, !tbaa !66
  %17 = getelementptr inbounds nuw i8, ptr %16, i64 8
  %18 = load i64, ptr %17, align 8, !tbaa !48
  %19 = getelementptr inbounds nuw i8, ptr %9, i64 16
  %20 = icmp eq ptr %16, %19
  br i1 %20, label %22, label %21

21:                                               ; preds = %.noexc
  call void @free(ptr noundef nonnull %16) #38
  br label %22

22:                                               ; preds = %21, %.noexc
  call void @llvm.lifetime.end.p0(i64 48, ptr nonnull %9) #38
  call void @llvm.lifetime.start.p0(i64 48, ptr nonnull %8) #38
  %23 = getelementptr inbounds nuw i8, ptr %2, i64 104
  invoke void @_ZN6open3d4core10SizeVectorC1ERKS1_(ptr noundef nonnull align 8 dereferenceable(48) %8, ptr noundef nonnull align 8 dereferenceable(48) %23)
          to label %.noexc21 unwind label %39

.noexc21:                                         ; preds = %22
  %24 = load ptr, ptr %8, align 8, !tbaa !66
  %25 = load i64, ptr %24, align 8, !tbaa !48
  %26 = getelementptr inbounds nuw i8, ptr %8, i64 16
  %27 = icmp eq ptr %24, %26
  br i1 %27, label %29, label %28

28:                                               ; preds = %.noexc21
  call void @free(ptr noundef nonnull %24) #38
  br label %29

29:                                               ; preds = %28, %.noexc21
  call void @llvm.lifetime.end.p0(i64 48, ptr nonnull %8) #38
  %30 = trunc i64 %18 to i32
  %31 = trunc i64 %25 to i32
  invoke void @_ZN6open3d1t8geometry10PointCloud18ProjectToRGBDImageEiiRKNS_4core6TensorES6_ff(ptr dead_on_unwind writable sret(%"class.open3d::t::geometry::RGBDImage") align 8 %0, ptr noundef nonnull align 8 dereferenceable(344) %12, i32 noundef %30, i32 noundef %31, ptr noundef nonnull align 8 dereferenceable(160) %3, ptr noundef nonnull align 8 dereferenceable(160) %4, float noundef %5, float noundef %6)
          to label %32 unwind label %39

32:                                               ; preds = %29
  call void @_ZN6open3d1t8geometry10PointCloudD2Ev(ptr noundef nonnull align 8 dereferenceable(344) %12) #38
  call void @llvm.lifetime.end.p0(i64 344, ptr nonnull %12) #38
  call void @_ZN6open3d1t8geometry10PointCloudD2Ev(ptr noundef nonnull align 8 dereferenceable(344) %11) #38
  call void @llvm.lifetime.end.p0(i64 344, ptr nonnull %11) #38
  call void @_ZN6open3d1t8geometry10PointCloudD2Ev(ptr noundef nonnull align 8 dereferenceable(344) %10) #38
  call void @llvm.lifetime.end.p0(i64 344, ptr nonnull %10) #38
  ret void

33:                                               ; preds = %7
  %34 = landingpad { ptr, i32 }
          cleanup
  br label %43

35:                                               ; preds = %13
  %36 = landingpad { ptr, i32 }
          cleanup
  br label %42

37:                                               ; preds = %14
  %38 = landingpad { ptr, i32 }
          cleanup
  br label %41

39:                                               ; preds = %22, %29
  %40 = landingpad { ptr, i32 }
          cleanup
  br label %41

41:                                               ; preds = %39, %37
  %.pn = phi { ptr, i32 } [ %40, %39 ], [ %38, %37 ]
  call void @_ZN6open3d1t8geometry10PointCloudD2Ev(ptr noundef nonnull align 8 dereferenceable(344) %12) #38
  br label %42

42:                                               ; preds = %41, %35
  %.pn.pn = phi { ptr, i32 } [ %.pn, %41 ], [ %36, %35 ]
  call void @llvm.lifetime.end.p0(i64 344, ptr nonnull %12) #38
  call void @_ZN6open3d1t8geometry10PointCloudD2Ev(ptr noundef nonnull align 8 dereferenceable(344) %11) #38
  br label %43

43:                                               ; preds = %42, %33
  %.pn.pn.pn = phi { ptr, i32 } [ %.pn.pn, %42 ], [ %34, %33 ]
  call void @llvm.lifetime.end.p0(i64 344, ptr nonnull %11) #38
  call void @_ZN6open3d1t8geometry10PointCloudD2Ev(ptr noundef nonnull align 8 dereferenceable(344) %10) #38
  call void @llvm.lifetime.end.p0(i64 344, ptr nonnull %10) #38
  resume { ptr, i32 } %.pn.pn.pn
}